target datalayout = "e-m:e-p270:32:32-p271:32:32-p272:64:64-i64:64-i128:128-f80:128-n8:16:32:64-S128"
target triple = "x86_64-pc-linux-gnu"

%struct._reo_man = type { i32, i32, i32, i32, i32, i32, ptr, ptr, i32, ptr, i32, i32, ptr, ptr, ptr, ptr, i32, i32, i32, i32, i32, i32, double, double, double, ptr, ptr, ptr, ptr, i32, ptr, i32, i32, ptr, i32, i32, i32, ptr, i32, i32, ptr, ptr, i32, i32, i32, i32, i32, i32, i32 }
%struct._reo_plane = type { i32, i32, i32, double, double, double, double, ptr }
%struct._reo_unit = type { i16, i16, i16, i16, i32, ptr, ptr, ptr, double }

; Function Attrs: nounwind uwtable
define void @reoProfileAplStart(ptr noundef %0) #0 {
  %2 = alloca ptr, align 8
  %3 = alloca ptr, align 8
  %4 = alloca ptr, align 8
  %5 = alloca ptr, align 8
  %6 = alloca double, align 8
  %7 = alloca double, align 8
  %8 = alloca i32, align 4
  store ptr %0, ptr %2, align 8, !tbaa !3
  call void @llvm.lifetime.start.p0(i64 8, ptr %3) #6
  call void @llvm.lifetime.start.p0(i64 8, ptr %4) #6
  call void @llvm.lifetime.start.p0(i64 8, ptr %5) #6
  call void @llvm.lifetime.start.p0(i64 8, ptr %6) #6
  call void @llvm.lifetime.start.p0(i64 8, ptr %7) #6
  call void @llvm.lifetime.start.p0(i64 4, ptr %8) #6
  store i32 0, ptr %8, align 4, !tbaa !8
  br label %9

9:                                                ; preds = %35, %1
  %10 = load i32, ptr %8, align 4, !tbaa !8
  %11 = load ptr, ptr %2, align 8, !tbaa !3
  %12 = getelementptr inbounds nuw %struct._reo_man, ptr %11, i32 0, i32 11
  %13 = load i32, ptr %12, align 4, !tbaa !10
  %14 = icmp slt i32 %10, %13
  br i1 %14, label %15, label %38

15:                                               ; preds = %9
  %16 = load ptr, ptr %2, align 8, !tbaa !3
  %17 = getelementptr inbounds nuw %struct._reo_man, ptr %16, i32 0, i32 28
  %18 = load ptr, ptr %17, align 8, !tbaa !21
  %19 = load i32, ptr %8, align 4, !tbaa !8
  %20 = sext i32 %19 to i64
  %21 = getelementptr inbounds %struct._reo_plane, ptr %18, i64 %20
  %22 = getelementptr inbounds nuw %struct._reo_plane, ptr %21, i32 0, i32 7
  %23 = load ptr, ptr %22, align 8, !tbaa !29
  store ptr %23, ptr %5, align 8, !tbaa !30
  br label %24

24:                                               ; preds = %30, %15
  %25 = load ptr, ptr %5, align 8, !tbaa !30
  %26 = icmp ne ptr %25, null
  br i1 %26, label %27, label %34

27:                                               ; preds = %24
  %28 = load ptr, ptr %5, align 8, !tbaa !30
  %29 = getelementptr inbounds nuw %struct._reo_unit, ptr %28, i32 0, i32 8
  store double 0.000000e+00, ptr %29, align 8, !tbaa !31
  br label %30

30:                                               ; preds = %27
  %31 = load ptr, ptr %5, align 8, !tbaa !30
  %32 = getelementptr inbounds nuw %struct._reo_unit, ptr %31, i32 0, i32 7
  %33 = load ptr, ptr %32, align 8, !tbaa !34
  store ptr %33, ptr %5, align 8, !tbaa !30
  br label %24, !llvm.loop !35

34:                                               ; preds = %24
  br label %35

35:                                               ; preds = %34
  %36 = load i32, ptr %8, align 4, !tbaa !8
  %37 = add nsw i32 %36, 1
  store i32 %37, ptr %8, align 4, !tbaa !8
  br label %9, !llvm.loop !36

38:                                               ; preds = %9
  store i32 0, ptr %8, align 4, !tbaa !8
  br label %39

39:                                               ; preds = %59, %38
  %40 = load i32, ptr %8, align 4, !tbaa !8
  %41 = load ptr, ptr %2, align 8, !tbaa !3
  %42 = getelementptr inbounds nuw %struct._reo_man, ptr %41, i32 0, i32 31
  %43 = load i32, ptr %42, align 8, !tbaa !37
  %44 = icmp slt i32 %40, %43
  br i1 %44, label %45, label %62

45:                                               ; preds = %39
  %46 = load ptr, ptr %2, align 8, !tbaa !3
  %47 = getelementptr inbounds nuw %struct._reo_man, ptr %46, i32 0, i32 30
  %48 = load ptr, ptr %47, align 8, !tbaa !38
  %49 = load i32, ptr %8, align 4, !tbaa !8
  %50 = sext i32 %49 to i64
  %51 = getelementptr inbounds ptr, ptr %48, i64 %50
  %52 = load ptr, ptr %51, align 8, !tbaa !30
  %53 = ptrtoint ptr %52 to i64
  %54 = and i64 %53, -2
  %55 = inttoptr i64 %54 to ptr
  %56 = getelementptr inbounds nuw %struct._reo_unit, ptr %55, i32 0, i32 8
  %57 = load double, ptr %56, align 8, !tbaa !31
  %58 = fadd double %57, 1.000000e+00
  store double %58, ptr %56, align 8, !tbaa !31
  br label %59

59:                                               ; preds = %45
  %60 = load i32, ptr %8, align 4, !tbaa !8
  %61 = add nsw i32 %60, 1
  store i32 %61, ptr %8, align 4, !tbaa !8
  br label %39, !llvm.loop !39

62:                                               ; preds = %39
  store double 0.000000e+00, ptr %6, align 8, !tbaa !40
  store i32 0, ptr %8, align 4, !tbaa !8
  br label %63

63:                                               ; preds = %142, %62
  %64 = load i32, ptr %8, align 4, !tbaa !8
  %65 = load ptr, ptr %2, align 8, !tbaa !3
  %66 = getelementptr inbounds nuw %struct._reo_man, ptr %65, i32 0, i32 11
  %67 = load i32, ptr %66, align 4, !tbaa !10
  %68 = icmp slt i32 %64, %67
  br i1 %68, label %69, label %145

69:                                               ; preds = %63
  %70 = load ptr, ptr %2, align 8, !tbaa !3
  %71 = getelementptr inbounds nuw %struct._reo_man, ptr %70, i32 0, i32 28
  %72 = load ptr, ptr %71, align 8, !tbaa !21
  %73 = load i32, ptr %8, align 4, !tbaa !8
  %74 = sext i32 %73 to i64
  %75 = getelementptr inbounds %struct._reo_plane, ptr %72, i64 %74
  %76 = getelementptr inbounds nuw %struct._reo_plane, ptr %75, i32 0, i32 4
  store double 0.000000e+00, ptr %76, align 8, !tbaa !24
  %77 = load ptr, ptr %2, align 8, !tbaa !3
  %78 = getelementptr inbounds nuw %struct._reo_man, ptr %77, i32 0, i32 28
  %79 = load ptr, ptr %78, align 8, !tbaa !21
  %80 = load i32, ptr %8, align 4, !tbaa !8
  %81 = sext i32 %80 to i64
  %82 = getelementptr inbounds %struct._reo_plane, ptr %79, i64 %81
  %83 = getelementptr inbounds nuw %struct._reo_plane, ptr %82, i32 0, i32 7
  %84 = load ptr, ptr %83, align 8, !tbaa !29
  store ptr %84, ptr %5, align 8, !tbaa !30
  br label %85

85:                                               ; preds = %127, %69
  %86 = load ptr, ptr %5, align 8, !tbaa !30
  %87 = icmp ne ptr %86, null
  br i1 %87, label %88, label %131

88:                                               ; preds = %85
  %89 = load ptr, ptr %5, align 8, !tbaa !30
  %90 = getelementptr inbounds nuw %struct._reo_unit, ptr %89, i32 0, i32 5
  %91 = load ptr, ptr %90, align 8, !tbaa !41
  %92 = ptrtoint ptr %91 to i64
  %93 = and i64 %92, -2
  %94 = inttoptr i64 %93 to ptr
  store ptr %94, ptr %3, align 8, !tbaa !30
  %95 = load ptr, ptr %5, align 8, !tbaa !30
  %96 = getelementptr inbounds nuw %struct._reo_unit, ptr %95, i32 0, i32 6
  %97 = load ptr, ptr %96, align 8, !tbaa !42
  %98 = ptrtoint ptr %97 to i64
  %99 = and i64 %98, -2
  %100 = inttoptr i64 %99 to ptr
  store ptr %100, ptr %4, align 8, !tbaa !30
  %101 = load ptr, ptr %5, align 8, !tbaa !30
  %102 = getelementptr inbounds nuw %struct._reo_unit, ptr %101, i32 0, i32 8
  %103 = load double, ptr %102, align 8, !tbaa !31
  %104 = fmul double 5.000000e-01, %103
  store double %104, ptr %7, align 8, !tbaa !40
  %105 = load double, ptr %7, align 8, !tbaa !40
  %106 = load ptr, ptr %3, align 8, !tbaa !30
  %107 = getelementptr inbounds nuw %struct._reo_unit, ptr %106, i32 0, i32 8
  %108 = load double, ptr %107, align 8, !tbaa !31
  %109 = fadd double %108, %105
  store double %109, ptr %107, align 8, !tbaa !31
  %110 = load double, ptr %7, align 8, !tbaa !40
  %111 = load ptr, ptr %4, align 8, !tbaa !30
  %112 = getelementptr inbounds nuw %struct._reo_unit, ptr %111, i32 0, i32 8
  %113 = load double, ptr %112, align 8, !tbaa !31
  %114 = fadd double %113, %110
  store double %114, ptr %112, align 8, !tbaa !31
  %115 = load ptr, ptr %5, align 8, !tbaa !30
  %116 = getelementptr inbounds nuw %struct._reo_unit, ptr %115, i32 0, i32 8
  %117 = load double, ptr %116, align 8, !tbaa !31
  %118 = load ptr, ptr %2, align 8, !tbaa !3
  %119 = getelementptr inbounds nuw %struct._reo_man, ptr %118, i32 0, i32 28
  %120 = load ptr, ptr %119, align 8, !tbaa !21
  %121 = load i32, ptr %8, align 4, !tbaa !8
  %122 = sext i32 %121 to i64
  %123 = getelementptr inbounds %struct._reo_plane, ptr %120, i64 %122
  %124 = getelementptr inbounds nuw %struct._reo_plane, ptr %123, i32 0, i32 4
  %125 = load double, ptr %124, align 8, !tbaa !24
  %126 = fadd double %125, %117
  store double %126, ptr %124, align 8, !tbaa !24
  br label %127

127:                                              ; preds = %88
  %128 = load ptr, ptr %5, align 8, !tbaa !30
  %129 = getelementptr inbounds nuw %struct._reo_unit, ptr %128, i32 0, i32 7
  %130 = load ptr, ptr %129, align 8, !tbaa !34
  store ptr %130, ptr %5, align 8, !tbaa !30
  br label %85, !llvm.loop !43

131:                                              ; preds = %85
  %132 = load ptr, ptr %2, align 8, !tbaa !3
  %133 = getelementptr inbounds nuw %struct._reo_man, ptr %132, i32 0, i32 28
  %134 = load ptr, ptr %133, align 8, !tbaa !21
  %135 = load i32, ptr %8, align 4, !tbaa !8
  %136 = sext i32 %135 to i64
  %137 = getelementptr inbounds %struct._reo_plane, ptr %134, i64 %136
  %138 = getelementptr inbounds nuw %struct._reo_plane, ptr %137, i32 0, i32 4
  %139 = load double, ptr %138, align 8, !tbaa !24
  %140 = load double, ptr %6, align 8, !tbaa !40
  %141 = fadd double %140, %139
  store double %141, ptr %6, align 8, !tbaa !40
  br label %142

142:                                              ; preds = %131
  %143 = load i32, ptr %8, align 4, !tbaa !8
  %144 = add nsw i32 %143, 1
  store i32 %144, ptr %8, align 4, !tbaa !8
  br label %63, !llvm.loop !44

145:                                              ; preds = %63
  %146 = load ptr, ptr %2, align 8, !tbaa !3
  %147 = getelementptr inbounds nuw %struct._reo_man, ptr %146, i32 0, i32 28
  %148 = load ptr, ptr %147, align 8, !tbaa !21
  %149 = load ptr, ptr %2, align 8, !tbaa !3
  %150 = getelementptr inbounds nuw %struct._reo_man, ptr %149, i32 0, i32 11
  %151 = load i32, ptr %150, align 4, !tbaa !10
  %152 = sext i32 %151 to i64
  %153 = getelementptr inbounds %struct._reo_plane, ptr %148, i64 %152
  %154 = getelementptr inbounds nuw %struct._reo_plane, ptr %153, i32 0, i32 4
  store double 0.000000e+00, ptr %154, align 8, !tbaa !24
  %155 = load double, ptr %6, align 8, !tbaa !40
  %156 = load ptr, ptr %2, align 8, !tbaa !3
  %157 = getelementptr inbounds nuw %struct._reo_man, ptr %156, i32 0, i32 22
  store double %155, ptr %157, align 8, !tbaa !45
  %158 = load ptr, ptr %2, align 8, !tbaa !3
  %159 = getelementptr inbounds nuw %struct._reo_man, ptr %158, i32 0, i32 23
  store double %155, ptr %159, align 8, !tbaa !46
  call void @llvm.lifetime.end.p0(i64 4, ptr %8) #6
  call void @llvm.lifetime.end.p0(i64 8, ptr %7) #6
  call void @llvm.lifetime.end.p0(i64 8, ptr %6) #6
  call void @llvm.lifetime.end.p0(i64 8, ptr %5) #6
  call void @llvm.lifetime.end.p0(i64 8, ptr %4) #6
  call void @llvm.lifetime.end.p0(i64 8, ptr %3) #6
  ret void
}