; Function Attrs: nofree norecurse nosync nounwind memory(readwrite, inaccessiblemem: none) uwtable
define void @reoProfileAplStart(ptr noundef captures(none) %0) local_unnamed_addr #0 {
  %2 = getelementptr inbounds nuw i8, ptr %0, i64 60
  %3 = load i32, ptr %2, align 4, !tbaa !3
  %4 = icmp sgt i32 %3, 0
  br i1 %4, label %.lr.ph50, label %.preheader44

.lr.ph50:                                         ; preds = %1
  %5 = getelementptr inbounds nuw i8, ptr %0, i64 168
  %6 = load ptr, ptr %5, align 8, !tbaa !18
  %wide.trip.count = zext nneg i32 %3 to i64
  br label %12

.preheader44:                                     ; preds = %._crit_edge, %1
  %7 = getelementptr inbounds nuw i8, ptr %0, i64 192
  %8 = load i32, ptr %7, align 8, !tbaa !26
  %9 = icmp sgt i32 %8, 0
  br i1 %9, label %.lr.ph52, label %.preheader

.lr.ph52:                                         ; preds = %.preheader44
  %10 = getelementptr inbounds nuw i8, ptr %0, i64 184
  %11 = load ptr, ptr %10, align 8, !tbaa !27
  %wide.trip.count70 = zext nneg i32 %8 to i64
  br label %18

12:                                               ; preds = %.lr.ph50, %._crit_edge
  %indvars.iv = phi i64 [ 0, %.lr.ph50 ], [ %indvars.iv.next, %._crit_edge ]
  %13 = getelementptr inbounds nuw %struct._reo_plane, ptr %6, i64 %indvars.iv, i32 7
  %.03945 = load ptr, ptr %13, align 8, !tbaa !28
  %.not4346 = icmp eq ptr %.03945, null
  br i1 %.not4346, label %._crit_edge, label %.lr.ph

.lr.ph:                                           ; preds = %12, %.lr.ph
  %.03947 = phi ptr [ %.039, %.lr.ph ], [ %.03945, %12 ]
  %14 = getelementptr inbounds nuw i8, ptr %.03947, i64 40
  store double 0.000000e+00, ptr %14, align 8, !tbaa !29
  %15 = getelementptr inbounds nuw i8, ptr %.03947, i64 32
  %.039 = load ptr, ptr %15, align 8, !tbaa !28
  %.not43 = icmp eq ptr %.039, null
  br i1 %.not43, label %._crit_edge, label %.lr.ph, !llvm.loop !32

._crit_edge:                                      ; preds = %.lr.ph, %12
  %indvars.iv.next = add nuw nsw i64 %indvars.iv, 1
  %exitcond.not = icmp eq i64 %indvars.iv.next, %wide.trip.count
  br i1 %exitcond.not, label %.preheader44, label %12, !llvm.loop !33

.preheader:                                       ; preds = %18, %.preheader44
  %16 = getelementptr inbounds nuw i8, ptr %0, i64 168
  %17 = load ptr, ptr %16, align 8, !tbaa !18
  br i1 %4, label %.lr.ph62, label %._crit_edge63

.lr.ph62:                                         ; preds = %.preheader
  %wide.trip.count75 = zext nneg i32 %3 to i64
  br label %27

18:                                               ; preds = %.lr.ph52, %18
  %indvars.iv67 = phi i64 [ 0, %.lr.ph52 ], [ %indvars.iv.next68, %18 ]
  %19 = getelementptr inbounds nuw ptr, ptr %11, i64 %indvars.iv67
  %20 = load ptr, ptr %19, align 8, !tbaa !28
  %21 = ptrtoint ptr %20 to i64
  %22 = and i64 %21, -2
  %23 = inttoptr i64 %22 to ptr
  %24 = getelementptr inbounds nuw i8, ptr %23, i64 40
  %25 = load double, ptr %24, align 8, !tbaa !29
  %26 = fadd double %25, 1.000000e+00
  store double %26, ptr %24, align 8, !tbaa !29
  %indvars.iv.next68 = add nuw nsw i64 %indvars.iv67, 1
  %exitcond71.not = icmp eq i64 %indvars.iv.next68, %wide.trip.count70
  br i1 %exitcond71.not, label %.preheader, label %18, !llvm.loop !34

27:                                               ; preds = %.lr.ph62, %53
  %indvars.iv72 = phi i64 [ 0, %.lr.ph62 ], [ %indvars.iv.next73, %53 ]
  %.04160 = phi double [ 0.000000e+00, %.lr.ph62 ], [ %55, %53 ]
  %28 = getelementptr inbounds nuw %struct._reo_plane, ptr %17, i64 %indvars.iv72, i32 4
  store double 0.000000e+00, ptr %28, align 8, !tbaa !21
  %29 = getelementptr inbounds nuw %struct._reo_plane, ptr %17, i64 %indvars.iv72, i32 7
  %.14053 = load ptr, ptr %29, align 8, !tbaa !28
  %.not54 = icmp eq ptr %.14053, null
  br i1 %.not54, label %53, label %.lr.ph57

.lr.ph57:                                         ; preds = %27, %.lr.ph57
  %30 = phi double [ %51, %.lr.ph57 ], [ 0.000000e+00, %27 ]
  %.14055 = phi ptr [ %.140, %.lr.ph57 ], [ %.14053, %27 ]
  %31 = getelementptr inbounds nuw i8, ptr %.14055, i64 16
  %32 = load ptr, ptr %31, align 8, !tbaa !35
  %33 = ptrtoint ptr %32 to i64
  %34 = and i64 %33, -2
  %35 = inttoptr i64 %34 to ptr
  %36 = getelementptr inbounds nuw i8, ptr %.14055, i64 24
  %37 = load ptr, ptr %36, align 8, !tbaa !36
  %38 = ptrtoint ptr %37 to i64
  %39 = and i64 %38, -2
  %40 = inttoptr i64 %39 to ptr
  %41 = getelementptr inbounds nuw i8, ptr %.14055, i64 40
  %42 = load double, ptr %41, align 8, !tbaa !29
  %43 = fmul double %42, 5.000000e-01
  %44 = getelementptr inbounds nuw i8, ptr %35, i64 40
  %45 = load double, ptr %44, align 8, !tbaa !29
  %46 = fadd double %45, %43
  store double %46, ptr %44, align 8, !tbaa !29
  %47 = getelementptr inbounds nuw i8, ptr %40, i64 40
  %48 = load double, ptr %47, align 8, !tbaa !29
  %49 = fadd double %43, %48
  store double %49, ptr %47, align 8, !tbaa !29
  %50 = load double, ptr %41, align 8, !tbaa !29
  %51 = fadd double %50, %30
  %52 = getelementptr inbounds nuw i8, ptr %.14055, i64 32
  %.140 = load ptr, ptr %52, align 8, !tbaa !28
  %.not = icmp eq ptr %.140, null
  br i1 %.not, label %._crit_edge58, label %.lr.ph57, !llvm.loop !37

._crit_edge58:                                    ; preds = %.lr.ph57
  store double %51, ptr %28, align 8, !tbaa !21
  br label %53

53:                                               ; preds = %._crit_edge58, %27
  %54 = phi double [ %51, %._crit_edge58 ], [ 0.000000e+00, %27 ]
  %55 = fadd double %.04160, %54
  %indvars.iv.next73 = add nuw nsw i64 %indvars.iv72, 1
  %exitcond76.not = icmp eq i64 %indvars.iv.next73, %wide.trip.count75
  br i1 %exitcond76.not, label %._crit_edge63, label %27, !llvm.loop !38

._crit_edge63:                                    ; preds = %53, %.preheader
  %.041.lcssa = phi double [ 0.000000e+00, %.preheader ], [ %55, %53 ]
  %56 = sext i32 %3 to i64
  %57 = getelementptr inbounds %struct._reo_plane, ptr %17, i64 %56, i32 4
  store double 0.000000e+00, ptr %57, align 8, !tbaa !21
  %58 = getelementptr inbounds nuw i8, ptr %0, i64 120
  store double %.041.lcssa, ptr %58, align 8, !tbaa !39
  %59 = getelementptr inbounds nuw i8, ptr %0, i64 128
  store double %.041.lcssa, ptr %59, align 8, !tbaa !40
  ret void
}